; Function Attrs: mustprogress nofree norecurse nosync nounwind willreturn memory(argmem: write) uwtable
define hidden void @uv__io_init(ptr noundef %0, ptr noundef %1, i32 noundef %2) local_unnamed_addr #12 {
  %4 = getelementptr inbounds nuw i8, ptr %0, i64 8
  store ptr %4, ptr %4, align 8
  %5 = getelementptr inbounds nuw i8, ptr %0, i64 16
  store ptr %4, ptr %5, align 8
  %6 = getelementptr inbounds nuw i8, ptr %0, i64 24
  store ptr %6, ptr %6, align 8
  %7 = getelementptr inbounds nuw i8, ptr %0, i64 32
  store ptr %6, ptr %7, align 8
  store ptr %1, ptr %0, align 8
  %8 = getelementptr inbounds nuw i8, ptr %0, i64 48
  store i32 %2, ptr %8, align 8
  %9 = getelementptr inbounds nuw i8, ptr %0, i64 44
  store i32 0, ptr %9, align 4
  %10 = getelementptr inbounds nuw i8, ptr %0, i64 40
  store i32 0, ptr %10, align 8
  ret void
}